target datalayout = "e-m:e-p270:32:32-p271:32:32-p272:64:64-i64:64-i128:128-f80:128-n8:16:32:64-S128"
target triple = "x86_64-pc-linux-gnu"

%struct.VP9RawFrameHeader = type { i8, i8, i8, i8, i8, i8, i8, i8, i8, i8, i8, i8, i8, i8, i8, i8, [3 x i8], [4 x i8], i8, i8, i8, i8, [3 x i8], i16, i16, i8, i16, i16, i8, i8, i8, i8, i8, i8, [4 x i8], [4 x i8], [2 x i8], [2 x i8], i8, i8, i8, i8, i8, i8, [7 x i8], i8, [3 x i8], i8, i8, [8 x [4 x i8]], [8 x [4 x i8]], [8 x [4 x i8]], i8, i8, i16 }

@.str.50 = private unnamed_addr constant [21 x i8] c"is_filter_switchable\00", align 1
@.str.51 = private unnamed_addr constant [30 x i8] c"raw_interpolation_filter_type\00", align 1

; Function Attrs: nounwind uwtable
define internal i32 @cbs_vp9_read_interpolation_filter(ptr noundef %0, ptr noundef %1, ptr noundef %2) #0 {
  %4 = alloca i32, align 4
  %5 = alloca ptr, align 8
  %6 = alloca ptr, align 8
  %7 = alloca ptr, align 8
  %8 = alloca i32, align 4
  %9 = alloca i32, align 4
  %10 = alloca i32, align 4
  %11 = alloca i32, align 4
  store ptr %0, ptr %5, align 8, !tbaa !4
  store ptr %1, ptr %6, align 8, !tbaa !62
  store ptr %2, ptr %7, align 8, !tbaa !79
  call void @llvm.lifetime.start.p0(i64 4, ptr %8) #8
  br label %12

12:                                               ; preds = %3
  call void @llvm.lifetime.start.p0(i64 4, ptr %9) #8
  br label %13

13:                                               ; preds = %12
  %14 = load ptr, ptr %5, align 8, !tbaa !4
  %15 = load ptr, ptr %6, align 8, !tbaa !62
  %16 = call i32 @ff_cbs_read_simple_unsigned(ptr noundef %14, ptr noundef %15, i32 noundef 1, ptr noundef @.str.50, ptr noundef %9)
  store i32 %16, ptr %8, align 4, !tbaa !11
  %17 = load i32, ptr %8, align 4, !tbaa !11
  %18 = icmp slt i32 %17, 0
  br i1 %18, label %19, label %21

19:                                               ; preds = %13
  %20 = load i32, ptr %8, align 4, !tbaa !11
  store i32 %20, ptr %4, align 4
  store i32 1, ptr %10, align 4
  br label %28

21:                                               ; preds = %13
  br label %22

22:                                               ; preds = %21
  br label %23

23:                                               ; preds = %22
  %24 = load i32, ptr %9, align 4, !tbaa !11
  %25 = trunc i32 %24 to i8
  %26 = load ptr, ptr %7, align 8, !tbaa !79
  %27 = getelementptr inbounds nuw %struct.VP9RawFrameHeader, ptr %26, i32 0, i32 28
  store i8 %25, ptr %27, align 2, !tbaa !134
  store i32 0, ptr %10, align 4
  br label %28

28:                                               ; preds = %23, %19
  call void @llvm.lifetime.end.p0(i64 4, ptr %9) #8
  %29 = load i32, ptr %10, align 4
  switch i32 %29, label %60 [
    i32 0, label %30
  ]

30:                                               ; preds = %28
  br label %31

31:                                               ; preds = %30
  br label %32

32:                                               ; preds = %31
  %33 = load ptr, ptr %7, align 8, !tbaa !79
  %34 = getelementptr inbounds nuw %struct.VP9RawFrameHeader, ptr %33, i32 0, i32 28
  %35 = load i8, ptr %34, align 2, !tbaa !134
  %36 = icmp ne i8 %35, 0
  br i1 %36, label %59, label %37

37:                                               ; preds = %32
  br label %38

38:                                               ; preds = %37
  call void @llvm.lifetime.start.p0(i64 4, ptr %11) #8
  br label %39

39:                                               ; preds = %38
  %40 = load ptr, ptr %5, align 8, !tbaa !4
  %41 = load ptr, ptr %6, align 8, !tbaa !62
  %42 = call i32 @ff_cbs_read_simple_unsigned(ptr noundef %40, ptr noundef %41, i32 noundef 2, ptr noundef @.str.51, ptr noundef %11)
  store i32 %42, ptr %8, align 4, !tbaa !11
  %43 = load i32, ptr %8, align 4, !tbaa !11
  %44 = icmp slt i32 %43, 0
  br i1 %44, label %45, label %47

45:                                               ; preds = %39
  %46 = load i32, ptr %8, align 4, !tbaa !11
  store i32 %46, ptr %4, align 4
  store i32 1, ptr %10, align 4
  br label %54

47:                                               ; preds = %39
  br label %48

48:                                               ; preds = %47
  br label %49

49:                                               ; preds = %48
  %50 = load i32, ptr %11, align 4, !tbaa !11
  %51 = trunc i32 %50 to i8
  %52 = load ptr, ptr %7, align 8, !tbaa !79
  %53 = getelementptr inbounds nuw %struct.VP9RawFrameHeader, ptr %52, i32 0, i32 29
  store i8 %51, ptr %53, align 1, !tbaa !135
  store i32 0, ptr %10, align 4
  br label %54

54:                                               ; preds = %49, %45
  call void @llvm.lifetime.end.p0(i64 4, ptr %11) #8
  %55 = load i32, ptr %10, align 4
  switch i32 %55, label %60 [
    i32 0, label %56
  ]

56:                                               ; preds = %54
  br label %57

57:                                               ; preds = %56
  br label %58

58:                                               ; preds = %57
  br label %59

59:                                               ; preds = %58, %32
  store i32 0, ptr %4, align 4
  store i32 1, ptr %10, align 4
  br label %60

60:                                               ; preds = %59, %54, %28
  call void @llvm.lifetime.end.p0(i64 4, ptr %8) #8
  %61 = load i32, ptr %4, align 4
  ret i32 %61
}