; Function Attrs: nounwind uwtable
define internal fastcc range(i32 -2147483648, 1) i32 @cbs_vp9_read_interpolation_filter(ptr noundef %0, ptr noundef nonnull %1, ptr noundef writeonly captures(none) %2) unnamed_addr #0 {
  %4 = alloca i32, align 4
  %5 = alloca i32, align 4
  call void @llvm.lifetime.start.p0(i64 4, ptr nonnull %4) #8
  %6 = call i32 @ff_cbs_read_simple_unsigned(ptr noundef %0, ptr noundef nonnull %1, i32 noundef 1, ptr noundef nonnull @.str.50, ptr noundef nonnull %4) #8
  %7 = icmp sgt i32 %6, -1
  br i1 %7, label %8, label %.critedge

8:                                                ; preds = %3
  %9 = load i32, ptr %4, align 4, !tbaa !22
  %10 = trunc i32 %9 to i8
  %11 = getelementptr inbounds nuw i8, ptr %2, i64 40
  store i8 %10, ptr %11, align 2, !tbaa !121
  call void @llvm.lifetime.end.p0(i64 4, ptr nonnull %4) #8
  %.not = icmp eq i8 %10, 0
  br i1 %.not, label %12, label %19

12:                                               ; preds = %8
  call void @llvm.lifetime.start.p0(i64 4, ptr nonnull %5) #8
  %13 = call i32 @ff_cbs_read_simple_unsigned(ptr noundef %0, ptr noundef nonnull %1, i32 noundef 2, ptr noundef nonnull @.str.51, ptr noundef nonnull %5) #8
  %14 = icmp sgt i32 %13, -1
  br i1 %14, label %.thread, label %18

.thread:                                          ; preds = %12
  %15 = load i32, ptr %5, align 4, !tbaa !22
  %16 = trunc i32 %15 to i8
  %17 = getelementptr inbounds nuw i8, ptr %2, i64 41
  store i8 %16, ptr %17, align 1, !tbaa !122
  call void @llvm.lifetime.end.p0(i64 4, ptr nonnull %5) #8
  br label %19

18:                                               ; preds = %12
  call void @llvm.lifetime.end.p0(i64 4, ptr nonnull %5) #8
  br label %19

.critedge:                                        ; preds = %3
  call void @llvm.lifetime.end.p0(i64 4, ptr nonnull %4) #8
  br label %19

19:                                               ; preds = %8, %.thread, %18, %.critedge
  %.115 = phi i32 [ %13, %18 ], [ %6, %.critedge ], [ 0, %.thread ], [ 0, %8 ]
  ret i32 %.115
}